target datalayout = "e-m:e-p270:32:32-p271:32:32-p272:64:64-i64:64-i128:128-f80:128-n8:16:32:64-S128"
target triple = "x86_64-pc-linux-gnu"

%struct.keytype_desc_st = type { ptr, ptr, ptr, i32, i32, ptr, ptr, ptr, ptr, ptr, ptr, ptr, ptr }

@__const.der2key_check_selection.checks = private unnamed_addr constant [3 x i32] [i32 1, i32 2, i32 132], align 4
@type_specific_keypair_rsa_desc = internal constant %struct.keytype_desc_st { ptr @.str.20, ptr @ossl_rsa_keymgmt_functions, ptr @.str.10, i32 6, i32 3, ptr @d2i_RSAPrivateKey, ptr @d2i_RSAPublicKey, ptr null, ptr null, ptr null, ptr @rsa_check, ptr @rsa_adjust, ptr @RSA_free }, align 8

; Function Attrs: nounwind uwtable
define internal i32 @der2key_check_selection(i32 noundef %0, ptr noundef %1) #0 {
  %3 = alloca i32, align 4
  %4 = alloca i32, align 4
  %5 = alloca ptr, align 8
  %6 = alloca [3 x i32], align 4
  %7 = alloca i64, align 8
  %8 = alloca i32, align 4
  %9 = alloca i32, align 4
  %10 = alloca i32, align 4
  store i32 %0, ptr %4, align 4, !tbaa !9
  store ptr %1, ptr %5, align 8, !tbaa !39
  call void @llvm.lifetime.start.p0(i64 12, ptr %6) #6
  call void @llvm.memcpy.p0.p0.i64(ptr align 4 %6, ptr align 4 @__const.der2key_check_selection.checks, i64 12, i1 false)
  call void @llvm.lifetime.start.p0(i64 8, ptr %7) #6
  %11 = load i32, ptr %4, align 4, !tbaa !9
  %12 = icmp eq i32 %11, 0
  br i1 %12, label %13, label %14

13:                                               ; preds = %2
  store i32 1, ptr %3, align 4
  store i32 1, ptr %8, align 4
  br label %47

14:                                               ; preds = %2
  store i64 0, ptr %7, align 8, !tbaa !15
  br label %15

15:                                               ; preds = %43, %14
  %16 = load i64, ptr %7, align 8, !tbaa !15
  %17 = icmp ult i64 %16, 3
  br i1 %17, label %18, label %46

18:                                               ; preds = %15
  call void @llvm.lifetime.start.p0(i64 4, ptr %9) #6
  %19 = load i32, ptr %4, align 4, !tbaa !9
  %20 = load i64, ptr %7, align 8, !tbaa !15
  %21 = getelementptr inbounds nuw [3 x i32], ptr %6, i64 0, i64 %20
  %22 = load i32, ptr %21, align 4, !tbaa !9
  %23 = and i32 %19, %22
  %24 = icmp ne i32 %23, 0
  %25 = zext i1 %24 to i32
  store i32 %25, ptr %9, align 4, !tbaa !9
  call void @llvm.lifetime.start.p0(i64 4, ptr %10) #6
  %26 = load ptr, ptr %5, align 8, !tbaa !39
  %27 = getelementptr inbounds nuw %struct.keytype_desc_st, ptr %26, i32 0, i32 4
  %28 = load i32, ptr %27, align 4, !tbaa !22
  %29 = load i64, ptr %7, align 8, !tbaa !15
  %30 = getelementptr inbounds nuw [3 x i32], ptr %6, i64 0, i64 %29
  %31 = load i32, ptr %30, align 4, !tbaa !9
  %32 = and i32 %28, %31
  %33 = icmp ne i32 %32, 0
  %34 = zext i1 %33 to i32
  store i32 %34, ptr %10, align 4, !tbaa !9
  %35 = load i32, ptr %9, align 4, !tbaa !9
  %36 = icmp ne i32 %35, 0
  br i1 %36, label %37, label %39

37:                                               ; preds = %18
  %38 = load i32, ptr %10, align 4, !tbaa !9
  store i32 %38, ptr %3, align 4
  store i32 1, ptr %8, align 4
  br label %40

39:                                               ; preds = %18
  store i32 0, ptr %8, align 4
  br label %40

40:                                               ; preds = %39, %37
  call void @llvm.lifetime.end.p0(i64 4, ptr %10) #6
  call void @llvm.lifetime.end.p0(i64 4, ptr %9) #6
  %41 = load i32, ptr %8, align 4
  switch i32 %41, label %47 [
    i32 0, label %42
  ]

42:                                               ; preds = %40
  br label %43

43:                                               ; preds = %42
  %44 = load i64, ptr %7, align 8, !tbaa !15
  %45 = add i64 %44, 1
  store i64 %45, ptr %7, align 8, !tbaa !15
  br label %15, !llvm.loop !51

46:                                               ; preds = %15
  store i32 0, ptr %3, align 4
  store i32 1, ptr %8, align 4
  br label %47

47:                                               ; preds = %46, %40, %13
  call void @llvm.lifetime.end.p0(i64 8, ptr %7) #6
  call void @llvm.lifetime.end.p0(i64 12, ptr %6) #6
  %48 = load i32, ptr %3, align 4
  ret i32 %48
}

; Function Attrs: nounwind uwtable
define internal i32 @type_specific_keypair_der2rsa_does_selection(ptr noundef %0, i32 noundef %1) #0 {
  %3 = alloca ptr, align 8
  %4 = alloca i32, align 4
  store ptr %0, ptr %3, align 8, !tbaa !3
  store i32 %1, ptr %4, align 4, !tbaa !9
  %5 = load i32, ptr %4, align 4, !tbaa !9
  %6 = call i32 @der2key_check_selection(i32 noundef %5, ptr noundef @type_specific_keypair_rsa_desc)
  ret i32 %6
}